target datalayout = "e-m:e-p270:32:32-p271:32:32-p272:64:64-i64:64-i128:128-f80:128-n8:16:32:64-S128"
target triple = "x86_64-pc-linux-gnu"

%struct.nghttp2_settings_entry = type { i32, i32 }

; Function Attrs: nounwind uwtable
define hidden i32 @nghttp2_iv_check(ptr noundef %0, i64 noundef %1) #0 {
  %3 = alloca i32, align 4
  %4 = alloca ptr, align 8
  %5 = alloca i64, align 8
  %6 = alloca i64, align 8
  %7 = alloca i32, align 4
  store ptr %0, ptr %4, align 8, !tbaa !8
  store i64 %1, ptr %5, align 8, !tbaa !18
  call void @llvm.lifetime.start.p0(i64 8, ptr %6) #7
  store i64 0, ptr %6, align 8, !tbaa !18
  br label %8

8:                                                ; preds = %92, %2
  %9 = load i64, ptr %6, align 8, !tbaa !18
  %10 = load i64, ptr %5, align 8, !tbaa !18
  %11 = icmp ult i64 %9, %10
  br i1 %11, label %12, label %95

12:                                               ; preds = %8
  %13 = load ptr, ptr %4, align 8, !tbaa !8
  %14 = load i64, ptr %6, align 8, !tbaa !18
  %15 = getelementptr inbounds nuw %struct.nghttp2_settings_entry, ptr %13, i64 %14
  %16 = getelementptr inbounds nuw %struct.nghttp2_settings_entry, ptr %15, i32 0, i32 0
  %17 = load i32, ptr %16, align 4, !tbaa !88
  switch i32 %17, label %91 [
    i32 1, label %91
    i32 3, label %91
    i32 2, label %18
    i32 4, label %34
    i32 5, label %43
    i32 6, label %91
    i32 8, label %59
    i32 9, label %75
  ]

18:                                               ; preds = %12
  %19 = load ptr, ptr %4, align 8, !tbaa !8
  %20 = load i64, ptr %6, align 8, !tbaa !18
  %21 = getelementptr inbounds nuw %struct.nghttp2_settings_entry, ptr %19, i64 %20
  %22 = getelementptr inbounds nuw %struct.nghttp2_settings_entry, ptr %21, i32 0, i32 1
  %23 = load i32, ptr %22, align 4, !tbaa !90
  %24 = icmp ne i32 %23, 0
  br i1 %24, label %25, label %33

25:                                               ; preds = %18
  %26 = load ptr, ptr %4, align 8, !tbaa !8
  %27 = load i64, ptr %6, align 8, !tbaa !18
  %28 = getelementptr inbounds nuw %struct.nghttp2_settings_entry, ptr %26, i64 %27
  %29 = getelementptr inbounds nuw %struct.nghttp2_settings_entry, ptr %28, i32 0, i32 1
  %30 = load i32, ptr %29, align 4, !tbaa !90
  %31 = icmp ne i32 %30, 1
  br i1 %31, label %32, label %33

32:                                               ; preds = %25
  store i32 0, ptr %3, align 4
  store i32 1, ptr %7, align 4
  br label %96

33:                                               ; preds = %25, %18
  br label %91

34:                                               ; preds = %12
  %35 = load ptr, ptr %4, align 8, !tbaa !8
  %36 = load i64, ptr %6, align 8, !tbaa !18
  %37 = getelementptr inbounds nuw %struct.nghttp2_settings_entry, ptr %35, i64 %36
  %38 = getelementptr inbounds nuw %struct.nghttp2_settings_entry, ptr %37, i32 0, i32 1
  %39 = load i32, ptr %38, align 4, !tbaa !90
  %40 = icmp ugt i32 %39, 2147483647
  br i1 %40, label %41, label %42

41:                                               ; preds = %34
  store i32 0, ptr %3, align 4
  store i32 1, ptr %7, align 4
  br label %96

42:                                               ; preds = %34
  br label %91

43:                                               ; preds = %12
  %44 = load ptr, ptr %4, align 8, !tbaa !8
  %45 = load i64, ptr %6, align 8, !tbaa !18
  %46 = getelementptr inbounds nuw %struct.nghttp2_settings_entry, ptr %44, i64 %45
  %47 = getelementptr inbounds nuw %struct.nghttp2_settings_entry, ptr %46, i32 0, i32 1
  %48 = load i32, ptr %47, align 4, !tbaa !90
  %49 = icmp ult i32 %48, 16384
  br i1 %49, label %57, label %50

50:                                               ; preds = %43
  %51 = load ptr, ptr %4, align 8, !tbaa !8
  %52 = load i64, ptr %6, align 8, !tbaa !18
  %53 = getelementptr inbounds nuw %struct.nghttp2_settings_entry, ptr %51, i64 %52
  %54 = getelementptr inbounds nuw %struct.nghttp2_settings_entry, ptr %53, i32 0, i32 1
  %55 = load i32, ptr %54, align 4, !tbaa !90
  %56 = icmp ugt i32 %55, 16777215
  br i1 %56, label %57, label %58

57:                                               ; preds = %50, %43
  store i32 0, ptr %3, align 4
  store i32 1, ptr %7, align 4
  br label %96

58:                                               ; preds = %50
  br label %91

59:                                               ; preds = %12
  %60 = load ptr, ptr %4, align 8, !tbaa !8
  %61 = load i64, ptr %6, align 8, !tbaa !18
  %62 = getelementptr inbounds nuw %struct.nghttp2_settings_entry, ptr %60, i64 %61
  %63 = getelementptr inbounds nuw %struct.nghttp2_settings_entry, ptr %62, i32 0, i32 1
  %64 = load i32, ptr %63, align 4, !tbaa !90
  %65 = icmp ne i32 %64, 0
  br i1 %65, label %66, label %74

66:                                               ; preds = %59
  %67 = load ptr, ptr %4, align 8, !tbaa !8
  %68 = load i64, ptr %6, align 8, !tbaa !18
  %69 = getelementptr inbounds nuw %struct.nghttp2_settings_entry, ptr %67, i64 %68
  %70 = getelementptr inbounds nuw %struct.nghttp2_settings_entry, ptr %69, i32 0, i32 1
  %71 = load i32, ptr %70, align 4, !tbaa !90
  %72 = icmp ne i32 %71, 1
  br i1 %72, label %73, label %74

73:                                               ; preds = %66
  store i32 0, ptr %3, align 4
  store i32 1, ptr %7, align 4
  br label %96

74:                                               ; preds = %66, %59
  br label %91

75:                                               ; preds = %12
  %76 = load ptr, ptr %4, align 8, !tbaa !8
  %77 = load i64, ptr %6, align 8, !tbaa !18
  %78 = getelementptr inbounds nuw %struct.nghttp2_settings_entry, ptr %76, i64 %77
  %79 = getelementptr inbounds nuw %struct.nghttp2_settings_entry, ptr %78, i32 0, i32 1
  %80 = load i32, ptr %79, align 4, !tbaa !90
  %81 = icmp ne i32 %80, 0
  br i1 %81, label %82, label %90

82:                                               ; preds = %75
  %83 = load ptr, ptr %4, align 8, !tbaa !8
  %84 = load i64, ptr %6, align 8, !tbaa !18
  %85 = getelementptr inbounds nuw %struct.nghttp2_settings_entry, ptr %83, i64 %84
  %86 = getelementptr inbounds nuw %struct.nghttp2_settings_entry, ptr %85, i32 0, i32 1
  %87 = load i32, ptr %86, align 4, !tbaa !90
  %88 = icmp ne i32 %87, 1
  br i1 %88, label %89, label %90

89:                                               ; preds = %82
  store i32 0, ptr %3, align 4
  store i32 1, ptr %7, align 4
  br label %96

90:                                               ; preds = %82, %75
  br label %91

91:                                               ; preds = %12, %90, %74, %12, %58, %42, %33, %12, %12
  br label %92

92:                                               ; preds = %91
  %93 = load i64, ptr %6, align 8, !tbaa !18
  %94 = add i64 %93, 1
  store i64 %94, ptr %6, align 8, !tbaa !18
  br label %8, !llvm.loop !111

95:                                               ; preds = %8
  store i32 1, ptr %3, align 4
  store i32 1, ptr %7, align 4
  br label %96

96:                                               ; preds = %95, %89, %73, %57, %41, %32
  call void @llvm.lifetime.end.p0(i64 8, ptr %6) #7
  %97 = load i32, ptr %3, align 4
  ret i32 %97
}