; Function Attrs: nofree norecurse nosync nounwind memory(argmem: read) uwtable
define hidden range(i32 0, 2) i32 @nghttp2_iv_check(ptr noundef readonly captures(none) %0, i64 noundef %1) local_unnamed_addr #15 {
  %.not = icmp eq i64 %1, 0
  br i1 %.not, label %._crit_edge, label %.lr.ph

.lr.ph:                                           ; preds = %2, %22
  %.035 = phi i64 [ %23, %22 ], [ 0, %2 ]
  %3 = getelementptr inbounds nuw %struct.nghttp2_settings_entry, ptr %0, i64 %.035
  %4 = load i32, ptr %3, align 4, !tbaa !81
  switch i32 %4, label %22 [
    i32 9, label %19
    i32 8, label %16
    i32 2, label %5
    i32 4, label %8
    i32 5, label %12
  ]

5:                                                ; preds = %.lr.ph
  %6 = getelementptr inbounds nuw i8, ptr %3, i64 4
  %7 = load i32, ptr %6, align 4, !tbaa !83
  %switch = icmp ult i32 %7, 2
  br i1 %switch, label %22, label %._crit_edge

8:                                                ; preds = %.lr.ph
  %9 = getelementptr inbounds nuw i8, ptr %3, i64 4
  %10 = load i32, ptr %9, align 4, !tbaa !83
  %11 = icmp slt i32 %10, 0
  br i1 %11, label %._crit_edge, label %22

12:                                               ; preds = %.lr.ph
  %13 = getelementptr inbounds nuw i8, ptr %3, i64 4
  %14 = load i32, ptr %13, align 4, !tbaa !83
  %15 = add i32 %14, -16777216
  %or.cond = icmp ult i32 %15, -16760832
  br i1 %or.cond, label %._crit_edge, label %22

16:                                               ; preds = %.lr.ph
  %17 = getelementptr inbounds nuw i8, ptr %3, i64 4
  %18 = load i32, ptr %17, align 4, !tbaa !83
  %switch33 = icmp ult i32 %18, 2
  br i1 %switch33, label %22, label %._crit_edge

19:                                               ; preds = %.lr.ph
  %20 = getelementptr inbounds nuw i8, ptr %3, i64 4
  %21 = load i32, ptr %20, align 4, !tbaa !83
  %switch34 = icmp ult i32 %21, 2
  br i1 %switch34, label %22, label %._crit_edge

22:                                               ; preds = %19, %16, %5, %12, %.lr.ph, %8
  %23 = add nuw i64 %.035, 1
  %exitcond.not = icmp eq i64 %23, %1
  br i1 %exitcond.not, label %._crit_edge, label %.lr.ph, !llvm.loop !102

._crit_edge:                                      ; preds = %8, %12, %22, %5, %16, %19, %2
  %.023 = phi i32 [ 1, %2 ], [ 0, %19 ], [ 0, %16 ], [ 0, %5 ], [ 1, %22 ], [ 0, %12 ], [ 0, %8 ]
  ret i32 %.023
}